target datalayout = "e-m:e-p270:32:32-p271:32:32-p272:64:64-i64:64-i128:128-f80:128-n8:16:32:64-S128"
target triple = "x86_64-pc-linux-gnu"

%class.OopMapValue = type { i16, i16 }
%class.OopMap = type { i32, i32, i32, i32, i8, ptr }
%class.CompressedStream = type <{ ptr, i32, [4 x i8] }>
%class.OopMapSort = type <{ ptr, ptr, i32, [4 x i8] }>

; Function Attrs: mustprogress nounwind uwtable
define linkonce_odr hidden noundef i32 @_ZNK6OopMap9omv_countEv(ptr noundef nonnull align 8 dereferenceable(32) %0) #1 comdat align 2 {
  %2 = alloca ptr, align 8
  store ptr %0, ptr %2, align 8
  %3 = load ptr, ptr %2, align 8
  %4 = getelementptr inbounds %class.OopMap, ptr %3, i32 0, i32 1
  %5 = load i32, ptr %4, align 4
  ret i32 %5
}

; Function Attrs: mustprogress nounwind uwtable
define linkonce_odr hidden noundef ptr @_ZNK16CompressedStream6bufferEv(ptr noundef nonnull align 8 dereferenceable(12) %0) #1 comdat align 2 {
  %2 = alloca ptr, align 8
  store ptr %0, ptr %2, align 8
  %3 = load ptr, ptr %2, align 8
  %4 = getelementptr inbounds %class.CompressedStream, ptr %3, i32 0, i32 0
  %5 = load ptr, ptr %4, align 8
  ret ptr %5
}

; Function Attrs: mustprogress nounwind uwtable
define linkonce_odr hidden void @_ZN10OopMapSort5writeEP21CompressedWriteStream(ptr noundef nonnull align 8 dereferenceable(20) %0, ptr noundef %1) #1 comdat align 2 {
  %3 = alloca ptr, align 8
  %4 = alloca ptr, align 8
  %5 = alloca i32, align 4
  store ptr %0, ptr %3, align 8
  store ptr %1, ptr %4, align 8
  %6 = load ptr, ptr %3, align 8
  store i32 0, ptr %5, align 4
  br label %7

7:                                                ; preds = %19, %2
  %8 = load i32, ptr %5, align 4
  %9 = getelementptr inbounds %class.OopMapSort, ptr %6, i32 0, i32 2
  %10 = load i32, ptr %9, align 8
  %11 = icmp slt i32 %8, %10
  br i1 %11, label %12, label %22

12:                                               ; preds = %7
  %13 = getelementptr inbounds %class.OopMapSort, ptr %6, i32 0, i32 1
  %14 = load ptr, ptr %13, align 8
  %15 = load i32, ptr %5, align 4
  %16 = sext i32 %15 to i64
  %17 = getelementptr inbounds %class.OopMapValue, ptr %14, i64 %16
  %18 = load ptr, ptr %4, align 8
  call void @_ZN11OopMapValue8write_onEP21CompressedWriteStream(ptr noundef nonnull align 2 dereferenceable(4) %17, ptr noundef %18)
  br label %19

19:                                               ; preds = %12
  %20 = load i32, ptr %5, align 4
  %21 = add nsw i32 %20, 1
  store i32 %21, ptr %5, align 4
  br label %7, !llvm.loop !17

22:                                               ; preds = %7
  ret void
}

; Function Attrs: mustprogress nounwind uwtable
define linkonce_odr hidden noundef i32 @_ZNK16CompressedStream8positionEv(ptr noundef nonnull align 8 dereferenceable(12) %0) #1 comdat align 2 {
  %2 = alloca ptr, align 8
  store ptr %0, ptr %2, align 8
  %3 = load ptr, ptr %2, align 8
  %4 = getelementptr inbounds %class.CompressedStream, ptr %3, i32 0, i32 1
  %5 = load i32, ptr %4, align 8
  ret i32 %5
}

; Function Attrs: mustprogress nounwind uwtable
define linkonce_odr hidden noundef ptr @_ZN11ResourceObjnwEm(i64 noundef %0) #1 comdat align 2 {
  %2 = alloca i64, align 8
  store i64 %0, ptr %2, align 8
  %3 = load i64, ptr %2, align 8
  %4 = call noundef ptr @_Z23resource_allocate_bytesmN17AllocFailStrategy13AllocFailEnumE(i64 noundef %3, i32 noundef 0)
  ret ptr %4
}

; Function Attrs: mustprogress nounwind uwtable
define linkonce_odr hidden void @_ZN10OopMapSortC2EPK6OopMap(ptr noundef nonnull align 8 dereferenceable(20) %0, ptr noundef %1) unnamed_addr #1 comdat align 2 {
  %3 = alloca ptr, align 8
  %4 = alloca ptr, align 8
  store ptr %0, ptr %3, align 8
  store ptr %1, ptr %4, align 8
  %5 = load ptr, ptr %3, align 8
  %6 = getelementptr inbounds %class.OopMapSort, ptr %5, i32 0, i32 0
  %7 = load ptr, ptr %4, align 8
  store ptr %7, ptr %6, align 8
  %8 = getelementptr inbounds %class.OopMapSort, ptr %5, i32 0, i32 2
  store i32 0, ptr %8, align 8
  %9 = getelementptr inbounds %class.OopMapSort, ptr %5, i32 0, i32 0
  %10 = load ptr, ptr %9, align 8
  %11 = call noundef i32 @_ZNK6OopMap9omv_countEv(ptr noundef nonnull align 8 dereferenceable(32) %10)
  %12 = sext i32 %11 to i64
  %13 = mul i64 %12, 4
  %14 = call noundef ptr @_Z23resource_allocate_bytesmN17AllocFailStrategy13AllocFailEnumE(i64 noundef %13, i32 noundef 0)
  %15 = getelementptr inbounds %class.OopMapSort, ptr %5, i32 0, i32 1
  store ptr %14, ptr %15, align 8
  ret void
}

; Function Attrs: mustprogress nounwind uwtable
define hidden void @_ZNK6OopMap21copy_and_sort_data_toEPh(ptr noundef nonnull align 8 dereferenceable(32) %0, ptr noundef %1) #1 align 2 {
  %3 = alloca ptr, align 8
  %4 = alloca ptr, align 8
  %5 = alloca %class.OopMapSort, align 8
  %6 = alloca ptr, align 8
  store ptr %0, ptr %3, align 8
  store ptr %1, ptr %4, align 8
  %7 = load ptr, ptr %3, align 8
  call void @_ZN10OopMapSortC2EPK6OopMap(ptr noundef nonnull align 8 dereferenceable(20) %5, ptr noundef %7)
  call void @_ZN10OopMapSort4sortEv(ptr noundef nonnull align 8 dereferenceable(20) %5)
  %8 = call noundef ptr @_ZN11ResourceObjnwEm(i64 noundef 16)
  %9 = getelementptr inbounds %class.OopMap, ptr %7, i32 0, i32 5
  %10 = load ptr, ptr %9, align 8
  %11 = call noundef i32 @_ZNK16CompressedStream8positionEv(ptr noundef nonnull align 8 dereferenceable(12) %10)
  call void @_ZN21CompressedWriteStreamC1Ei(ptr noundef nonnull align 8 dereferenceable(16) %8, i32 noundef %11)
  store ptr %8, ptr %6, align 8
  %12 = load ptr, ptr %6, align 8
  call void @_ZN10OopMapSort5writeEP21CompressedWriteStream(ptr noundef nonnull align 8 dereferenceable(20) %5, ptr noundef %12)
  %13 = load ptr, ptr %4, align 8
  %14 = load ptr, ptr %6, align 8
  %15 = call noundef ptr @_ZNK16CompressedStream6bufferEv(ptr noundef nonnull align 8 dereferenceable(12) %14)
  %16 = load ptr, ptr %6, align 8
  %17 = call noundef i32 @_ZNK16CompressedStream8positionEv(ptr noundef nonnull align 8 dereferenceable(12) %16)
  %18 = sext i32 %17 to i64
  call void @llvm.memcpy.p0.p0.i64(ptr align 1 %13, ptr align 1 %15, i64 %18, i1 false)
  ret void
}