; Function Attrs: mustprogress nounwind uwtable
define hidden void @_ZNK6OopMap21copy_and_sort_data_toEPh(ptr noundef nonnull align 8 dereferenceable(32) %0, ptr nocapture noundef writeonly %1) local_unnamed_addr #2 align 2 {
  %3 = alloca %class.OopMapSort, align 8
  store ptr %0, ptr %3, align 8
  %4 = getelementptr inbounds i8, ptr %3, i64 16
  store i32 0, ptr %4, align 8
  %5 = getelementptr inbounds i8, ptr %0, i64 4
  %6 = load i32, ptr %5, align 4
  %7 = sext i32 %6 to i64
  %8 = shl nsw i64 %7, 2
  %9 = tail call noundef ptr @_Z23resource_allocate_bytesmN17AllocFailStrategy13AllocFailEnumE(i64 noundef %8, i32 noundef 0) #19
  %10 = getelementptr inbounds i8, ptr %3, i64 8
  store ptr %9, ptr %10, align 8
  call void @_ZN10OopMapSort4sortEv(ptr noundef nonnull align 8 dereferenceable(20) %3)
  %11 = tail call noundef ptr @_Z23resource_allocate_bytesmN17AllocFailStrategy13AllocFailEnumE(i64 noundef 16, i32 noundef 0) #19
  %12 = getelementptr inbounds i8, ptr %0, i64 24
  %13 = load ptr, ptr %12, align 8
  %14 = getelementptr inbounds i8, ptr %13, i64 8
  %15 = load i32, ptr %14, align 8
  tail call void @_ZN21CompressedWriteStreamC1Ei(ptr noundef nonnull align 8 dereferenceable(16) %11, i32 noundef %15) #19
  %16 = load i32, ptr %4, align 8
  %17 = icmp sgt i32 %16, 0
  br i1 %17, label %.lr.ph.i.preheader, label %_ZN10OopMapSort5writeEP21CompressedWriteStream.exit

.lr.ph.i.preheader:                               ; preds = %2
  %18 = load ptr, ptr %10, align 8
  %19 = zext nneg i32 %16 to i64
  br label %.lr.ph.i

.lr.ph.i:                                         ; preds = %.lr.ph.i.preheader, %.lr.ph.i
  %indvars.iv.i = phi i64 [ %indvars.iv.next.i, %.lr.ph.i ], [ 0, %.lr.ph.i.preheader ]
  %20 = getelementptr inbounds %class.OopMapValue, ptr %18, i64 %indvars.iv.i
  tail call void @_ZN11OopMapValue8write_onEP21CompressedWriteStream(ptr noundef nonnull align 2 dereferenceable(4) %20, ptr noundef nonnull %11)
  %indvars.iv.next.i = add nuw nsw i64 %indvars.iv.i, 1
  %exitcond.not = icmp eq i64 %indvars.iv.next.i, %19
  br i1 %exitcond.not, label %_ZN10OopMapSort5writeEP21CompressedWriteStream.exit, label %.lr.ph.i, !llvm.loop !19

_ZN10OopMapSort5writeEP21CompressedWriteStream.exit: ; preds = %.lr.ph.i, %2
  %21 = load ptr, ptr %11, align 8
  %22 = getelementptr inbounds i8, ptr %11, i64 8
  %23 = load i32, ptr %22, align 8
  %24 = sext i32 %23 to i64
  tail call void @llvm.memcpy.p0.p0.i64(ptr align 1 %1, ptr align 1 %21, i64 %24, i1 false)
  ret void
}